target datalayout = "e-m:e-p270:32:32-p271:32:32-p272:64:64-i64:64-i128:128-f80:128-n8:16:32:64-S128"
target triple = "x86_64-pc-linux-gnu"

%struct.ident_t = type { i32, i32, i32, i32, ptr }
%"struct.faiss::Index" = type <{ ptr, i32, [4 x i8], i64, i8, i8, [2 x i8], i32, float, [4 x i8] }>

@1 = private unnamed_addr constant %struct.ident_t { i32 0, i32 514, i32 0, i32 22, ptr @0 }, align 8

; Function Attrs: norecurse nounwind uwtable
define internal void @_ZNK5faiss13IndexFastScan22search_dispatch_implemILb1EEEvlPKflPfPlPKNS_15NormTableScalerE.omp_outlined(ptr noalias noundef %0, ptr noalias noundef %1, ptr noundef nonnull align 4 dereferenceable(4) %2, ptr noundef nonnull align 8 dereferenceable(8) %3, ptr noundef nonnull align 8 dereferenceable(8) %4, ptr noundef nonnull align 8 dereferenceable(8) %5, ptr noundef nonnull align 8 dereferenceable(8) %6, ptr noundef nonnull align 4 dereferenceable(4) %7, ptr noundef nonnull align 8 dereferenceable(8) %8, ptr noundef %9, ptr noundef nonnull align 8 dereferenceable(8) %10) #12 personality ptr @__gxx_personality_v0 {
  %12 = alloca ptr, align 8
  %13 = alloca ptr, align 8
  %14 = alloca ptr, align 8
  %15 = alloca ptr, align 8
  %16 = alloca ptr, align 8
  %17 = alloca ptr, align 8
  %18 = alloca ptr, align 8
  %19 = alloca ptr, align 8
  %20 = alloca ptr, align 8
  %21 = alloca ptr, align 8
  %22 = alloca ptr, align 8
  %23 = alloca i32, align 4
  %24 = alloca i32, align 4
  %25 = alloca i32, align 4
  %26 = alloca i32, align 4
  %27 = alloca i32, align 4
  %28 = alloca i32, align 4
  %29 = alloca i32, align 4
  %30 = alloca i32, align 4
  %31 = alloca i32, align 4
  %32 = alloca i64, align 8
  %33 = alloca i64, align 8
  %34 = alloca ptr, align 8
  %35 = alloca ptr, align 8
  store ptr %0, ptr %12, align 8
  store ptr %1, ptr %13, align 8
  store ptr %2, ptr %14, align 8
  store ptr %3, ptr %15, align 8
  store ptr %4, ptr %16, align 8
  store ptr %5, ptr %17, align 8
  store ptr %6, ptr %18, align 8
  store ptr %7, ptr %19, align 8
  store ptr %8, ptr %20, align 8
  store ptr %9, ptr %21, align 8
  store ptr %10, ptr %22, align 8
  %36 = load ptr, ptr %14, align 8
  %37 = load ptr, ptr %15, align 8
  %38 = load ptr, ptr %16, align 8
  %39 = load ptr, ptr %17, align 8
  %40 = load ptr, ptr %18, align 8
  %41 = load ptr, ptr %19, align 8
  %42 = load ptr, ptr %20, align 8
  %43 = load ptr, ptr %21, align 8
  %44 = load ptr, ptr %22, align 8
  %45 = load i32, ptr %36, align 4
  store i32 %45, ptr %24, align 4
  %46 = load i32, ptr %24, align 4
  %47 = sub nsw i32 %46, 0
  %48 = sdiv i32 %47, 1
  %49 = sub nsw i32 %48, 1
  store i32 %49, ptr %25, align 4
  store i32 0, ptr %26, align 4
  %50 = load i32, ptr %24, align 4
  %51 = icmp slt i32 0, %50
  br i1 %51, label %52, label %147

52:                                               ; preds = %11
  store i32 0, ptr %27, align 4
  %53 = load i32, ptr %25, align 4
  store i32 %53, ptr %28, align 4
  store i32 1, ptr %29, align 4
  store i32 0, ptr %30, align 4
  %54 = load ptr, ptr %12, align 8
  %55 = load i32, ptr %54, align 4
  call void @__kmpc_for_static_init_4(ptr @1, i32 %55, i32 34, ptr %30, ptr %27, ptr %28, ptr %29, i32 1, i32 1)
  %56 = load i32, ptr %28, align 4
  %57 = load i32, ptr %25, align 4
  %58 = icmp sgt i32 %56, %57
  br i1 %58, label %59, label %61

59:                                               ; preds = %52
  %60 = load i32, ptr %25, align 4
  br label %63

61:                                               ; preds = %52
  %62 = load i32, ptr %28, align 4
  br label %63

63:                                               ; preds = %61, %59
  %64 = phi i32 [ %60, %59 ], [ %62, %61 ]
  store i32 %64, ptr %28, align 4
  %65 = load i32, ptr %27, align 4
  store i32 %65, ptr %23, align 4
  br label %66

66:                                               ; preds = %140, %63
  %67 = load i32, ptr %23, align 4
  %68 = load i32, ptr %28, align 4
  %69 = icmp sle i32 %67, %68
  br i1 %69, label %70, label %143

70:                                               ; preds = %66
  %71 = load i32, ptr %23, align 4
  %72 = mul nsw i32 %71, 1
  %73 = add nsw i32 0, %72
  store i32 %73, ptr %31, align 4
  %74 = load i64, ptr %37, align 8
  %75 = load i32, ptr %31, align 4
  %76 = sext i32 %75 to i64
  %77 = mul nsw i64 %74, %76
  %78 = load i32, ptr %36, align 4
  %79 = sext i32 %78 to i64
  %80 = sdiv i64 %77, %79
  store i64 %80, ptr %32, align 8
  %81 = load i64, ptr %37, align 8
  %82 = load i32, ptr %31, align 4
  %83 = add nsw i32 %82, 1
  %84 = sext i32 %83 to i64
  %85 = mul nsw i64 %81, %84
  %86 = load i32, ptr %36, align 4
  %87 = sext i32 %86 to i64
  %88 = sdiv i64 %85, %87
  store i64 %88, ptr %33, align 8
  %89 = load ptr, ptr %38, align 8
  %90 = load i64, ptr %32, align 8
  %91 = load i64, ptr %39, align 8
  %92 = mul nsw i64 %90, %91
  %93 = getelementptr inbounds float, ptr %89, i64 %92
  store ptr %93, ptr %34, align 8
  %94 = load ptr, ptr %40, align 8
  %95 = load i64, ptr %32, align 8
  %96 = load i64, ptr %39, align 8
  %97 = mul nsw i64 %95, %96
  %98 = getelementptr inbounds i64, ptr %94, i64 %97
  store ptr %98, ptr %35, align 8
  %99 = load i32, ptr %41, align 4
  %100 = icmp eq i32 %99, 12
  br i1 %100, label %104, label %101

101:                                              ; preds = %70
  %102 = load i32, ptr %41, align 4
  %103 = icmp eq i32 %102, 13
  br i1 %103, label %104, label %121

104:                                              ; preds = %101, %70
  %105 = load i64, ptr %33, align 8
  %106 = load i64, ptr %32, align 8
  %107 = sub nsw i64 %105, %106
  %108 = load ptr, ptr %42, align 8
  %109 = load i64, ptr %32, align 8
  %110 = getelementptr inbounds %"struct.faiss::Index", ptr %43, i32 0, i32 1
  %111 = load i32, ptr %110, align 8
  %112 = sext i32 %111 to i64
  %113 = mul nsw i64 %109, %112
  %114 = getelementptr inbounds float, ptr %108, i64 %113
  %115 = load i64, ptr %39, align 8
  %116 = load ptr, ptr %34, align 8
  %117 = load ptr, ptr %35, align 8
  %118 = load i32, ptr %41, align 4
  %119 = load ptr, ptr %44, align 8
  invoke void @_ZNK5faiss13IndexFastScan16search_implem_12INS_4CMaxItiEEEEvlPKflPfPliPKNS_15NormTableScalerE(ptr noundef nonnull align 8 dereferenceable(136) %43, i64 noundef %107, ptr noundef %114, i64 noundef %115, ptr noundef %116, ptr noundef %117, i32 noundef %118, ptr noundef %119)
          to label %120 unwind label %148

120:                                              ; preds = %104
  br label %138

121:                                              ; preds = %101
  %122 = load i64, ptr %33, align 8
  %123 = load i64, ptr %32, align 8
  %124 = sub nsw i64 %122, %123
  %125 = load ptr, ptr %42, align 8
  %126 = load i64, ptr %32, align 8
  %127 = getelementptr inbounds %"struct.faiss::Index", ptr %43, i32 0, i32 1
  %128 = load i32, ptr %127, align 8
  %129 = sext i32 %128 to i64
  %130 = mul nsw i64 %126, %129
  %131 = getelementptr inbounds float, ptr %125, i64 %130
  %132 = load i64, ptr %39, align 8
  %133 = load ptr, ptr %34, align 8
  %134 = load ptr, ptr %35, align 8
  %135 = load i32, ptr %41, align 4
  %136 = load ptr, ptr %44, align 8
  invoke void @_ZNK5faiss13IndexFastScan16search_implem_14INS_4CMaxItiEEEEvlPKflPfPliPKNS_15NormTableScalerE(ptr noundef nonnull align 8 dereferenceable(136) %43, i64 noundef %124, ptr noundef %131, i64 noundef %132, ptr noundef %133, ptr noundef %134, i32 noundef %135, ptr noundef %136)
          to label %137 unwind label %148

137:                                              ; preds = %121
  br label %138

138:                                              ; preds = %137, %120
  br label %139

139:                                              ; preds = %138
  br label %140

140:                                              ; preds = %139
  %141 = load i32, ptr %23, align 4
  %142 = add nsw i32 %141, 1
  store i32 %142, ptr %23, align 4
  br label %66

143:                                              ; preds = %66
  br label %144

144:                                              ; preds = %143
  %145 = load ptr, ptr %12, align 8
  %146 = load i32, ptr %145, align 4
  call void @__kmpc_for_static_fini(ptr @1, i32 %146)
  br label %147

147:                                              ; preds = %144, %11
  ret void

148:                                              ; preds = %121, %104
  %149 = landingpad { ptr, i32 }
          catch ptr null
  %150 = extractvalue { ptr, i32 } %149, 0
  call void @__clang_call_terminate(ptr %150) #16
  unreachable
}